target datalayout = "e-m:e-p270:32:32-p271:32:32-p272:64:64-i64:64-i128:128-f80:128-n8:16:32:64-S128"
target triple = "x86_64-pc-linux-gnu"

%struct.opj_codec_private = type { %union.anon, ptr, %struct.opj_event_mgr, i32, ptr, ptr, ptr, ptr }
%union.anon = type { %struct.opj_decompression }
%struct.opj_decompression = type { ptr, ptr, ptr, ptr, ptr, ptr, ptr, ptr, ptr, ptr, ptr, ptr }
%struct.opj_event_mgr = type { ptr, ptr, ptr, ptr, ptr, ptr }

; Function Attrs: nounwind uwtable
define hidden i32 @opj_get_decoded_tile(ptr noundef %0, ptr noundef %1, ptr noundef %2, i32 noundef %3) #0 {
  %5 = alloca i32, align 4
  %6 = alloca ptr, align 8
  %7 = alloca ptr, align 8
  %8 = alloca ptr, align 8
  %9 = alloca i32, align 4
  %10 = alloca ptr, align 8
  %11 = alloca ptr, align 8
  %12 = alloca i32, align 4
  store ptr %0, ptr %6, align 8, !tbaa !3
  store ptr %1, ptr %7, align 8, !tbaa !3
  store ptr %2, ptr %8, align 8, !tbaa !42
  store i32 %3, ptr %9, align 4, !tbaa !20
  %13 = load ptr, ptr %6, align 8, !tbaa !3
  %14 = icmp ne ptr %13, null
  br i1 %14, label %15, label %41

15:                                               ; preds = %4
  %16 = load ptr, ptr %7, align 8, !tbaa !3
  %17 = icmp ne ptr %16, null
  br i1 %17, label %18, label %41

18:                                               ; preds = %15
  call void @llvm.lifetime.start.p0(i64 8, ptr %10) #5
  %19 = load ptr, ptr %6, align 8, !tbaa !3
  store ptr %19, ptr %10, align 8, !tbaa !9
  call void @llvm.lifetime.start.p0(i64 8, ptr %11) #5
  %20 = load ptr, ptr %7, align 8, !tbaa !3
  store ptr %20, ptr %11, align 8, !tbaa !38
  %21 = load ptr, ptr %10, align 8, !tbaa !9
  %22 = getelementptr inbounds nuw %struct.opj_codec_private, ptr %21, i32 0, i32 3
  %23 = load i32, ptr %22, align 8, !tbaa !21
  %24 = icmp ne i32 %23, 0
  br i1 %24, label %26, label %25

25:                                               ; preds = %18
  store i32 0, ptr %5, align 4
  store i32 1, ptr %12, align 4
  br label %40

26:                                               ; preds = %18
  %27 = load ptr, ptr %10, align 8, !tbaa !9
  %28 = getelementptr inbounds nuw %struct.opj_codec_private, ptr %27, i32 0, i32 0
  %29 = getelementptr inbounds nuw %struct.opj_decompression, ptr %28, i32 0, i32 9
  %30 = load ptr, ptr %29, align 8, !tbaa !25
  %31 = load ptr, ptr %10, align 8, !tbaa !9
  %32 = getelementptr inbounds nuw %struct.opj_codec_private, ptr %31, i32 0, i32 1
  %33 = load ptr, ptr %32, align 8, !tbaa !27
  %34 = load ptr, ptr %11, align 8, !tbaa !38
  %35 = load ptr, ptr %8, align 8, !tbaa !42
  %36 = load ptr, ptr %10, align 8, !tbaa !9
  %37 = getelementptr inbounds nuw %struct.opj_codec_private, ptr %36, i32 0, i32 2
  %38 = load i32, ptr %9, align 4, !tbaa !20
  %39 = call i32 %30(ptr noundef %33, ptr noundef %34, ptr noundef %35, ptr noundef %37, i32 noundef %38)
  store i32 %39, ptr %5, align 4
  store i32 1, ptr %12, align 4
  br label %40

40:                                               ; preds = %26, %25
  call void @llvm.lifetime.end.p0(i64 8, ptr %11) #5
  call void @llvm.lifetime.end.p0(i64 8, ptr %10) #5
  br label %42

41:                                               ; preds = %15, %4
  store i32 0, ptr %5, align 4
  br label %42

42:                                               ; preds = %41, %40
  %43 = load i32, ptr %5, align 4
  ret i32 %43
}