; Function Attrs: nounwind uwtable
define hidden i32 @opj_get_decoded_tile(ptr noundef %0, ptr noundef %1, ptr noundef %2, i32 noundef %3) local_unnamed_addr #2 {
  %5 = icmp ne ptr %0, null
  %6 = icmp ne ptr %1, null
  %or.cond = and i1 %5, %6
  br i1 %or.cond, label %7, label %17

7:                                                ; preds = %4
  %8 = getelementptr inbounds nuw i8, ptr %0, i64 152
  %9 = load i32, ptr %8, align 8, !tbaa !15
  %.not = icmp eq i32 %9, 0
  br i1 %.not, label %17, label %10

10:                                               ; preds = %7
  %11 = getelementptr inbounds nuw i8, ptr %0, i64 72
  %12 = load ptr, ptr %11, align 8, !tbaa !19
  %13 = getelementptr inbounds nuw i8, ptr %0, i64 96
  %14 = load ptr, ptr %13, align 8, !tbaa !21
  %15 = getelementptr inbounds nuw i8, ptr %0, i64 104
  %16 = tail call i32 %12(ptr noundef %14, ptr noundef nonnull %1, ptr noundef %2, ptr noundef nonnull %15, i32 noundef %3) #8
  br label %17

17:                                               ; preds = %4, %10, %7
  %.1 = phi i32 [ %16, %10 ], [ 0, %7 ], [ 0, %4 ]
  ret i32 %.1
}